; Function Attrs: nounwind uwtable
define hidden ptr @lj_tab_new(ptr noundef %0, i32 noundef %1, i32 noundef %2) local_unnamed_addr #0 {
  %4 = tail call fastcc ptr @newtab(ptr noundef %0, i32 noundef %1, i32 noundef %2)
  %5 = getelementptr inbounds nuw i8, ptr %4, i64 48
  %6 = load i32, ptr %5, align 8, !tbaa !4
  %.not9 = icmp eq i32 %6, 0
  br i1 %.not9, label %clearapart.exit, label %.lr.ph.preheader

.lr.ph.preheader:                                 ; preds = %3
  %7 = getelementptr inbounds nuw i8, ptr %4, i64 16
  %8 = load i64, ptr %7, align 8, !tbaa !12
  %9 = inttoptr i64 %8 to ptr
  %10 = zext i32 %6 to i64
  %11 = shl nuw nsw i64 %10, 3
  tail call void @llvm.memset.p0.i64(ptr align 8 %9, i8 -1, i64 %11, i1 false), !tbaa !13
  br label %clearapart.exit

clearapart.exit:                                  ; preds = %.lr.ph.preheader, %3
  %12 = getelementptr inbounds nuw i8, ptr %4, i64 52
  %13 = load i32, ptr %12, align 4, !tbaa !14
  %.not = icmp eq i32 %13, 0
  br i1 %.not, label %clearhpart.exit, label %14

14:                                               ; preds = %clearapart.exit
  %15 = getelementptr inbounds nuw i8, ptr %4, i64 40
  %16 = load i64, ptr %15, align 8, !tbaa !15
  %17 = inttoptr i64 %16 to ptr
  %18 = add i32 %13, 1
  %umax = tail call i32 @llvm.umax.i32(i32 %18, i32 1)
  %wide.trip.count = zext i32 %umax to i64
  br label %19

19:                                               ; preds = %14, %19
  %indvars.iv = phi i64 [ 0, %14 ], [ %indvars.iv.next, %19 ]
  %20 = getelementptr inbounds nuw %struct.Node, ptr %17, i64 %indvars.iv
  %21 = getelementptr inbounds nuw i8, ptr %20, i64 16
  store i64 0, ptr %21, align 8, !tbaa !16
  %indvars.iv.next = add nuw nsw i64 %indvars.iv, 1
  %exitcond = icmp eq i64 %indvars.iv.next, %wide.trip.count
  tail call void @llvm.memset.p0.i64(ptr noundef nonnull align 8 dereferenceable(16) %20, i8 -1, i64 16, i1 false)
  br i1 %exitcond, label %clearhpart.exit, label %19, !llvm.loop !18

clearhpart.exit:                                  ; preds = %19, %clearapart.exit
  ret ptr %4
}